target datalayout = "e-m:e-p270:32:32-p271:32:32-p272:64:64-i64:64-i128:128-f80:128-n8:16:32:64-S128"
target triple = "x86_64-pc-linux-gnu"

%"class.gmx::ArrayRef" = type { %"struct.gmx::ArrayRefIter", %"struct.gmx::ArrayRefIter" }
%"struct.gmx::ArrayRefIter" = type { ptr }

@debug = external global ptr, align 8
@.str.15 = private unnamed_addr constant [54 x i8] c"i = %5d eigval = %10g w = %10g hwkT = %10g dS = %10g\0A\00", align 1
@.str.16 = private unnamed_addr constant [17 x i8] c"eigval[%d] = %g\0A\00", align 1

; Function Attrs: mustprogress nounwind uwtable
define linkonce_odr noundef nonnull align 4 dereferenceable(4) ptr @_ZNK3gmx12ArrayRefIterIKfEdeEv(ptr noundef nonnull align 8 dereferenceable(8) %0) #4 comdat align 2 {
  %2 = alloca ptr, align 8
  store ptr %0, ptr %2, align 8, !tbaa !19
  %3 = load ptr, ptr %2, align 8
  %4 = getelementptr inbounds nuw %"struct.gmx::ArrayRefIter", ptr %3, i32 0, i32 0
  %5 = load ptr, ptr %4, align 8, !tbaa !21
  ret ptr %5
}

; Function Attrs: mustprogress nounwind uwtable
define linkonce_odr noundef nonnull align 8 dereferenceable(8) ptr @_ZN3gmx12ArrayRefIterIKfEpLEl(ptr noundef nonnull align 8 dereferenceable(8) %0, i64 noundef %1) #4 comdat align 2 {
  %3 = alloca ptr, align 8
  %4 = alloca i64, align 8
  store ptr %0, ptr %3, align 8, !tbaa !19
  store i64 %1, ptr %4, align 8, !tbaa !25
  %5 = load ptr, ptr %3, align 8
  %6 = load i64, ptr %4, align 8, !tbaa !25
  %7 = getelementptr inbounds nuw %"struct.gmx::ArrayRefIter", ptr %5, i32 0, i32 0
  %8 = load ptr, ptr %7, align 8, !tbaa !21
  %9 = getelementptr inbounds float, ptr %8, i64 %6
  store ptr %9, ptr %7, align 8, !tbaa !21
  ret ptr %5
}

; Function Attrs: mustprogress nounwind uwtable
define linkonce_odr noundef nonnull align 8 dereferenceable(8) ptr @_ZNK3gmx5boost14stl_interfaces2v118iterator_interfaceINS_12ArrayRefIterIKfEESt26random_access_iterator_tagS5_RS5_PS5_lvE7derivedEv(ptr noundef nonnull align 1 dereferenceable(1) %0) #4 comdat align 2 {
  %2 = alloca ptr, align 8
  store ptr %0, ptr %2, align 8, !tbaa !23
  %3 = load ptr, ptr %2, align 8
  ret ptr %3
}

; Function Attrs: mustprogress nounwind uwtable
define linkonce_odr noundef i64 @_ZNK3gmx12ArrayRefIterIKfEmiES2_(ptr noundef nonnull align 8 dereferenceable(8) %0, ptr %1) #4 comdat align 2 {
  %3 = alloca %"struct.gmx::ArrayRefIter", align 8
  %4 = alloca ptr, align 8
  %5 = getelementptr inbounds nuw %"struct.gmx::ArrayRefIter", ptr %3, i32 0, i32 0
  store ptr %1, ptr %5, align 8
  store ptr %0, ptr %4, align 8, !tbaa !19
  %6 = load ptr, ptr %4, align 8
  %7 = getelementptr inbounds nuw %"struct.gmx::ArrayRefIter", ptr %6, i32 0, i32 0
  %8 = load ptr, ptr %7, align 8, !tbaa !21
  %9 = getelementptr inbounds nuw %"struct.gmx::ArrayRefIter", ptr %3, i32 0, i32 0
  %10 = load ptr, ptr %9, align 8, !tbaa !21
  %11 = ptrtoint ptr %8 to i64
  %12 = ptrtoint ptr %10 to i64
  %13 = sub i64 %11, %12
  %14 = sdiv exact i64 %13, 4
  ret i64 %14
}

; Function Attrs: inlinehint mustprogress nounwind uwtable
define linkonce_odr noundef nonnull align 8 dereferenceable(8) ptr @_ZSt3maxIdERKT_S2_S2_(ptr noundef nonnull align 8 dereferenceable(8) %0, ptr noundef nonnull align 8 dereferenceable(8) %1) #3 comdat {
  %3 = alloca ptr, align 8
  %4 = alloca ptr, align 8
  %5 = alloca ptr, align 8
  store ptr %0, ptr %4, align 8, !tbaa !10
  store ptr %1, ptr %5, align 8, !tbaa !10
  %6 = load ptr, ptr %4, align 8, !tbaa !10
  %7 = load double, ptr %6, align 8, !tbaa !4
  %8 = load ptr, ptr %5, align 8, !tbaa !10
  %9 = load double, ptr %8, align 8, !tbaa !4
  %10 = fcmp olt double %7, %9
  br i1 %10, label %11, label %13

11:                                               ; preds = %2
  %12 = load ptr, ptr %5, align 8, !tbaa !10
  store ptr %12, ptr %3, align 8
  br label %15

13:                                               ; preds = %2
  %14 = load ptr, ptr %4, align 8, !tbaa !10
  store ptr %14, ptr %3, align 8
  br label %15

15:                                               ; preds = %13, %11
  %16 = load ptr, ptr %3, align 8
  ret ptr %16
}

; Function Attrs: mustprogress nounwind uwtable
define linkonce_odr noundef nonnull align 4 dereferenceable(4) ptr @_ZNK3gmx5boost14stl_interfaces2v118iterator_interfaceINS_12ArrayRefIterIKfEESt26random_access_iterator_tagS5_RS5_PS5_lvEixIS6_EEDTcmpLclsr3stdE7declvalIRT_EEfp_declsr3stdE7declvalISD_EEEl(ptr noundef nonnull align 1 dereferenceable(1) %0, i64 noundef %1) #4 comdat align 2 {
  %3 = alloca ptr, align 8
  %4 = alloca i64, align 8
  %5 = alloca %"struct.gmx::ArrayRefIter", align 8
  store ptr %0, ptr %3, align 8, !tbaa !23
  store i64 %1, ptr %4, align 8, !tbaa !25
  %6 = load ptr, ptr %3, align 8
  call void @llvm.lifetime.start.p0(i64 8, ptr %5) #9
  %7 = call noundef nonnull align 8 dereferenceable(8) ptr @_ZNK3gmx5boost14stl_interfaces2v118iterator_interfaceINS_12ArrayRefIterIKfEESt26random_access_iterator_tagS5_RS5_PS5_lvE7derivedEv(ptr noundef nonnull align 1 dereferenceable(1) %6) #9
  call void @llvm.memcpy.p0.p0.i64(ptr align 8 %5, ptr align 8 %7, i64 8, i1 false)
  %8 = load i64, ptr %4, align 8, !tbaa !25
  %9 = call noundef nonnull align 8 dereferenceable(8) ptr @_ZN3gmx12ArrayRefIterIKfEpLEl(ptr noundef nonnull align 8 dereferenceable(8) %5, i64 noundef %8) #9
  %10 = call noundef nonnull align 4 dereferenceable(4) ptr @_ZNK3gmx12ArrayRefIterIKfEdeEv(ptr noundef nonnull align 8 dereferenceable(8) %5) #9
  call void @llvm.lifetime.end.p0(i64 8, ptr %5) #9
  ret ptr %10
}

; Function Attrs: mustprogress nounwind uwtable
define linkonce_odr noundef i64 @_ZNK3gmx8ArrayRefIKfE4sizeEv(ptr noundef nonnull align 8 dereferenceable(16) %0) #4 comdat align 2 {
  %2 = alloca ptr, align 8
  %3 = alloca %"struct.gmx::ArrayRefIter", align 8
  store ptr %0, ptr %2, align 8, !tbaa !15
  %4 = load ptr, ptr %2, align 8
  %5 = getelementptr inbounds nuw %"class.gmx::ArrayRef", ptr %4, i32 0, i32 1
  %6 = getelementptr inbounds nuw %"class.gmx::ArrayRef", ptr %4, i32 0, i32 0
  call void @llvm.memcpy.p0.p0.i64(ptr align 8 %3, ptr align 8 %6, i64 8, i1 false)
  %7 = getelementptr inbounds nuw %"struct.gmx::ArrayRefIter", ptr %3, i32 0, i32 0
  %8 = load ptr, ptr %7, align 8
  %9 = call noundef i64 @_ZNK3gmx12ArrayRefIterIKfEmiES2_(ptr noundef nonnull align 8 dereferenceable(8) %5, ptr %8) #9
  ret i64 %9
}

; Function Attrs: mustprogress uwtable
define noundef double @_Z21eigenvalueToFrequencyd(double noundef %0) #0 {
  %2 = alloca double, align 8
  %3 = alloca double, align 8
  %4 = alloca double, align 8
  store double %0, ptr %2, align 8, !tbaa !4
  call void @llvm.lifetime.start.p0(i64 8, ptr %3) #9
  store double 0x44EA78437A00E75D, ptr %3, align 8, !tbaa !4
  call void @llvm.lifetime.start.p0(i64 8, ptr %4) #9
  store double 0.000000e+00, ptr %4, align 8, !tbaa !4
  %5 = call noundef nonnull align 8 dereferenceable(8) ptr @_ZSt3maxIdERKT_S2_S2_(ptr noundef nonnull align 8 dereferenceable(8) %4, ptr noundef nonnull align 8 dereferenceable(8) %2)
  %6 = load double, ptr %5, align 8, !tbaa !4
  %7 = load double, ptr %3, align 8, !tbaa !4
  %8 = fmul double %6, %7
  %9 = call double @sqrt(double noundef %8) #9, !tbaa !8
  call void @llvm.lifetime.end.p0(i64 8, ptr %4) #9
  call void @llvm.lifetime.end.p0(i64 8, ptr %3) #9
  ret double %9
}

; Function Attrs: mustprogress nounwind uwtable
define linkonce_odr noundef nonnull align 4 dereferenceable(4) ptr @_ZNK3gmx8ArrayRefIKfEixEm(ptr noundef nonnull align 8 dereferenceable(16) %0, i64 noundef %1) #4 comdat align 2 {
  %3 = alloca ptr, align 8
  %4 = alloca i64, align 8
  store ptr %0, ptr %3, align 8, !tbaa !15
  store i64 %1, ptr %4, align 8, !tbaa !25
  %5 = load ptr, ptr %3, align 8
  %6 = getelementptr inbounds nuw %"class.gmx::ArrayRef", ptr %5, i32 0, i32 0
  %7 = load i64, ptr %4, align 8, !tbaa !25
  %8 = call noundef nonnull align 4 dereferenceable(4) ptr @_ZNK3gmx5boost14stl_interfaces2v118iterator_interfaceINS_12ArrayRefIterIKfEESt26random_access_iterator_tagS5_RS5_PS5_lvEixIS6_EEDTcmpLclsr3stdE7declvalIRT_EEfp_declsr3stdE7declvalISD_EEEl(ptr noundef nonnull align 1 dereferenceable(1) %6, i64 noundef %7) #9
  ret ptr %8
}

; Function Attrs: mustprogress uwtable
define linkonce_odr noundef i64 @_ZNK3gmx8ArrayRefIKfE5ssizeEv(ptr noundef nonnull align 8 dereferenceable(16) %0) #0 comdat align 2 {
  %2 = alloca ptr, align 8
  store ptr %0, ptr %2, align 8, !tbaa !15
  %3 = load ptr, ptr %2, align 8
  %4 = call noundef i64 @_ZNK3gmx8ArrayRefIKfE4sizeEv(ptr noundef nonnull align 8 dereferenceable(16) %3)
  ret i64 %4
}

; Function Attrs: mustprogress uwtable
define noundef double @_Z24calcQuasiHarmonicEntropyN3gmx8ArrayRefIKfEEfbf(ptr %0, ptr %1, float noundef %2, i1 noundef zeroext %3, float noundef %4) #0 {
  %6 = alloca %"class.gmx::ArrayRef", align 8
  %7 = alloca float, align 4
  %8 = alloca i8, align 1
  %9 = alloca float, align 4
  %10 = alloca i64, align 8
  %11 = alloca double, align 8
  %12 = alloca double, align 8
  %13 = alloca i64, align 8
  %14 = alloca double, align 8
  %15 = alloca double, align 8
  %16 = alloca double, align 8
  %17 = getelementptr inbounds nuw { ptr, ptr }, ptr %6, i32 0, i32 0
  store ptr %0, ptr %17, align 8
  %18 = getelementptr inbounds nuw { ptr, ptr }, ptr %6, i32 0, i32 1
  store ptr %1, ptr %18, align 8
  store float %2, ptr %7, align 4, !tbaa !13
  %19 = zext i1 %3 to i8
  store i8 %19, ptr %8, align 1, !tbaa !27
  store float %4, ptr %9, align 4, !tbaa !13
  call void @llvm.lifetime.start.p0(i64 8, ptr %10) #9
  %20 = load i8, ptr %8, align 1, !tbaa !27, !range !29, !noundef !30
  %21 = trunc i8 %20 to i1
  %22 = select i1 %21, i32 5, i32 6
  %23 = sext i32 %22 to i64
  store i64 %23, ptr %10, align 8, !tbaa !25
  call void @llvm.lifetime.start.p0(i64 8, ptr %11) #9
  store double 0.000000e+00, ptr %11, align 8, !tbaa !4
  call void @llvm.lifetime.start.p0(i64 8, ptr %12) #9
  store double 0x38E185A7057C690D, ptr %12, align 8, !tbaa !4
  call void @llvm.lifetime.start.p0(i64 8, ptr %13) #9
  %24 = load i64, ptr %10, align 8, !tbaa !25
  store i64 %24, ptr %13, align 8, !tbaa !25
  br label %25

25:                                               ; preds = %95, %5
  %26 = load i64, ptr %13, align 8, !tbaa !25
  %27 = call noundef i64 @_ZNK3gmx8ArrayRefIKfE5ssizeEv(ptr noundef nonnull align 8 dereferenceable(16) %6)
  %28 = icmp slt i64 %26, %27
  br i1 %28, label %30, label %29

29:                                               ; preds = %25
  call void @llvm.lifetime.end.p0(i64 8, ptr %13) #9
  br label %98

30:                                               ; preds = %25
  %31 = load i64, ptr %13, align 8, !tbaa !25
  %32 = call noundef nonnull align 4 dereferenceable(4) ptr @_ZNK3gmx8ArrayRefIKfEixEm(ptr noundef nonnull align 8 dereferenceable(16) %6, i64 noundef %31)
  %33 = load float, ptr %32, align 4, !tbaa !13
  %34 = fcmp ogt float %33, 0.000000e+00
  br i1 %34, label %35, label %80

35:                                               ; preds = %30
  call void @llvm.lifetime.start.p0(i64 8, ptr %14) #9
  %36 = load float, ptr %9, align 4, !tbaa !13
  %37 = fpext float %36 to double
  %38 = load i64, ptr %13, align 8, !tbaa !25
  %39 = call noundef nonnull align 4 dereferenceable(4) ptr @_ZNK3gmx8ArrayRefIKfEixEm(ptr noundef nonnull align 8 dereferenceable(16) %6, i64 noundef %38)
  %40 = load float, ptr %39, align 4, !tbaa !13
  %41 = fpext float %40 to double
  %42 = call noundef double @_Z21eigenvalueToFrequencyd(double noundef %41)
  %43 = fmul double %37, %42
  store double %43, ptr %14, align 8, !tbaa !4
  call void @llvm.lifetime.start.p0(i64 8, ptr %15) #9
  %44 = load double, ptr %12, align 8, !tbaa !4
  %45 = load double, ptr %14, align 8, !tbaa !4
  %46 = fmul double %44, %45
  %47 = load float, ptr %7, align 4, !tbaa !13
  %48 = fpext float %47 to double
  %49 = fmul double 0x3B30B0E6D55E647C, %48
  %50 = fdiv double %46, %49
  store double %50, ptr %15, align 8, !tbaa !4
  call void @llvm.lifetime.start.p0(i64 8, ptr %16) #9
  %51 = load double, ptr %15, align 8, !tbaa !4
  %52 = load double, ptr %15, align 8, !tbaa !4
  %53 = call double @expm1(double noundef %52) #9, !tbaa !8
  %54 = fdiv double %51, %53
  %55 = load double, ptr %15, align 8, !tbaa !4
  %56 = fneg double %55
  %57 = call double @exp(double noundef %56) #9, !tbaa !8
  %58 = fneg double %57
  %59 = call double @log1p(double noundef %58) #9, !tbaa !8
  %60 = fsub double %54, %59
  store double %60, ptr %16, align 8, !tbaa !4
  %61 = load double, ptr %16, align 8, !tbaa !4
  %62 = load double, ptr %11, align 8, !tbaa !4
  %63 = fadd double %62, %61
  store double %63, ptr %11, align 8, !tbaa !4
  %64 = load ptr, ptr @debug, align 8, !tbaa !31
  %65 = icmp ne ptr %64, null
  br i1 %65, label %66, label %79

66:                                               ; preds = %35
  %67 = load ptr, ptr @debug, align 8, !tbaa !31
  %68 = load i64, ptr %13, align 8, !tbaa !25
  %69 = add nsw i64 %68, 1
  %70 = trunc i64 %69 to i32
  %71 = load i64, ptr %13, align 8, !tbaa !25
  %72 = call noundef nonnull align 4 dereferenceable(4) ptr @_ZNK3gmx8ArrayRefIKfEixEm(ptr noundef nonnull align 8 dereferenceable(16) %6, i64 noundef %71)
  %73 = load float, ptr %72, align 4, !tbaa !13
  %74 = fpext float %73 to double
  %75 = load double, ptr %14, align 8, !tbaa !4
  %76 = load double, ptr %15, align 8, !tbaa !4
  %77 = load double, ptr %16, align 8, !tbaa !4
  %78 = call i32 (ptr, ptr, ...) @fprintf(ptr noundef %67, ptr noundef @.str.15, i32 noundef %70, double noundef %74, double noundef %75, double noundef %76, double noundef %77) #9
  br label %79

79:                                               ; preds = %66, %35
  call void @llvm.lifetime.end.p0(i64 8, ptr %16) #9
  call void @llvm.lifetime.end.p0(i64 8, ptr %15) #9
  call void @llvm.lifetime.end.p0(i64 8, ptr %14) #9
  br label %94

80:                                               ; preds = %30
  %81 = load ptr, ptr @debug, align 8, !tbaa !31
  %82 = icmp ne ptr %81, null
  br i1 %82, label %83, label %93

83:                                               ; preds = %80
  %84 = load ptr, ptr @debug, align 8, !tbaa !31
  %85 = load i64, ptr %13, align 8, !tbaa !25
  %86 = add nsw i64 %85, 1
  %87 = trunc i64 %86 to i32
  %88 = load i64, ptr %13, align 8, !tbaa !25
  %89 = call noundef nonnull align 4 dereferenceable(4) ptr @_ZNK3gmx8ArrayRefIKfEixEm(ptr noundef nonnull align 8 dereferenceable(16) %6, i64 noundef %88)
  %90 = load float, ptr %89, align 4, !tbaa !13
  %91 = fpext float %90 to double
  %92 = call i32 (ptr, ptr, ...) @fprintf(ptr noundef %84, ptr noundef @.str.16, i32 noundef %87, double noundef %91) #9
  br label %93

93:                                               ; preds = %83, %80
  br label %94

94:                                               ; preds = %93, %79
  br label %95

95:                                               ; preds = %94
  %96 = load i64, ptr %13, align 8, !tbaa !25
  %97 = add nsw i64 %96, 1
  store i64 %97, ptr %13, align 8, !tbaa !25
  br label %25, !llvm.loop !37

98:                                               ; preds = %29
  %99 = load double, ptr %11, align 8, !tbaa !4
  %100 = fmul double %99, 0x4020A1013E8990BE
  call void @llvm.lifetime.end.p0(i64 8, ptr %12) #9
  call void @llvm.lifetime.end.p0(i64 8, ptr %11) #9
  call void @llvm.lifetime.end.p0(i64 8, ptr %10) #9
  ret double %100
}