; Function Attrs: mustprogress nofree nounwind uwtable
define noundef double @_Z24calcQuasiHarmonicEntropyN3gmx8ArrayRefIKfEEfbf(ptr %0, ptr %1, float noundef %2, i1 noundef zeroext %3, float noundef %4) local_unnamed_addr #4 {
  %6 = select i1 %3, i64 5, i64 6
  %7 = ptrtoint ptr %1 to i64
  %8 = ptrtoint ptr %0 to i64
  %9 = sub i64 %7, %8
  %10 = ashr exact i64 %9, 2
  %11 = icmp slt i64 %6, %10
  br i1 %11, label %.lr.ph, label %._crit_edge

.lr.ph:                                           ; preds = %5
  %12 = fpext float %4 to double
  %13 = fpext float %2 to double
  %14 = fmul double %13, 0x3B30B0E6D55E647C
  br label %16

._crit_edge.loopexit:                             ; preds = %47
  %15 = fmul double %.1, 0x4020A1013E8990BE
  br label %._crit_edge

._crit_edge:                                      ; preds = %._crit_edge.loopexit, %5
  %.0.lcssa = phi double [ 0.000000e+00, %5 ], [ %15, %._crit_edge.loopexit ]
  ret double %.0.lcssa

16:                                               ; preds = %.lr.ph, %47
  %.030 = phi double [ 0.000000e+00, %.lr.ph ], [ %.1, %47 ]
  %.02229 = phi i64 [ %6, %.lr.ph ], [ %48, %47 ]
  %17 = getelementptr inbounds nuw float, ptr %0, i64 %.02229
  %18 = load float, ptr %17, align 4, !tbaa !8
  %19 = fcmp ogt float %18, 0.000000e+00
  br i1 %19, label %20, label %40

20:                                               ; preds = %16
  %21 = fpext float %18 to double
  %22 = fmul double %21, 0x44EA78437A00E75D
  %23 = tail call noundef double @sqrt(double noundef %22) #8, !tbaa !4
  %24 = fmul double %23, %12
  %25 = fmul double %24, 0x38E185A7057C690D
  %26 = fdiv double %25, %14
  %27 = tail call double @expm1(double noundef %26) #8, !tbaa !4
  %28 = fdiv double %26, %27
  %29 = fneg double %26
  %30 = tail call double @exp(double noundef %29) #8, !tbaa !4
  %31 = fneg double %30
  %32 = tail call double @log1p(double noundef %31) #8, !tbaa !4
  %33 = fsub double %28, %32
  %34 = fadd double %.030, %33
  %35 = load ptr, ptr @debug, align 8, !tbaa !10
  %.not25 = icmp eq ptr %35, null
  br i1 %.not25, label %47, label %36

36:                                               ; preds = %20
  %37 = trunc i64 %.02229 to i32
  %38 = add i32 %37, 1
  %39 = tail call i32 (ptr, ptr, ...) @fprintf(ptr noundef nonnull %35, ptr noundef nonnull @.str.15, i32 noundef %38, double noundef %21, double noundef %24, double noundef %26, double noundef %33) #8
  br label %47

40:                                               ; preds = %16
  %41 = load ptr, ptr @debug, align 8, !tbaa !10
  %.not = icmp eq ptr %41, null
  br i1 %.not, label %47, label %42

42:                                               ; preds = %40
  %43 = trunc i64 %.02229 to i32
  %44 = add i32 %43, 1
  %45 = fpext float %18 to double
  %46 = tail call i32 (ptr, ptr, ...) @fprintf(ptr noundef nonnull %41, ptr noundef nonnull @.str.16, i32 noundef %44, double noundef %45) #8
  br label %47

47:                                               ; preds = %20, %36, %42, %40
  %.1 = phi double [ %.030, %42 ], [ %.030, %40 ], [ %34, %36 ], [ %34, %20 ]
  %48 = add nuw nsw i64 %.02229, 1
  %exitcond.not = icmp eq i64 %48, %10
  br i1 %exitcond.not, label %._crit_edge.loopexit, label %16, !llvm.loop !16
}